Certificate:
    Data:
        Version: 3 (0x2)
        Serial Number:
            b6:51:4f:a9:39:d9:4e:e7:23:ae:35:11:3e:a3:15:07
        Signature Algorithm: sha256WithRSAEncryption
        Issuer: CN=localhost
        Validity
            Not Before: Aug  9 06:08:13 2022 GMT
            Not After : Nov 11 06:08:13 2024 GMT
        Subject: CN=host
        Subject Public Key Info:
            Public Key Algorithm: rsaEncryption
                RSA Public-Key: (2048 bit)
                Modulus:
                    00:c1:a8:1b:28:32:3f:bf:24:27:17:85:b8:97:cd:
                    f8:45:f0:4c:0e:0f:c9:16:80:bf:ab:e6:1e:f6:e4:
                    b2:82:48:e5:9c:06:85:38:fa:88:2c:73:c9:26:c0:
                    39:13:83:0b:9a:37:b8:64:f5:81:89:9f:97:58:c5:
                    54:cc:ff:60:cb:c9:2a:dd:c0:d1:42:df:6c:14:a0:
                    bf:44:b6:b9:af:f8:2a:a1:09:ee:a1:f0:62:af:92:
                    60:c3:4d:03:52:02:9a:5e:2a:bb:8e:dd:14:17:58:
                    06:94:78:06:f9:18:ef:05:f5:77:ca:c5:ce:77:1f:
                    3f:3e:6d:b0:4d:de:63:83:a1:96:ea:df:76:35:6b:
                    5c:06:e4:c3:8a:70:70:e0:b7:8a:2b:67:9e:94:f6:
                    e0:6a:60:13:c1:5d:85:48:9d:6a:09:9d:d1:69:b8:
                    76:72:99:a9:a8:1c:72:00:17:76:30:e3:89:65:54:
                    99:38:34:4d:df:93:9b:ae:31:ec:ab:b6:71:99:07:
                    b0:b9:43:42:1c:88:50:29:f8:3d:e4:a9:ee:2f:0a:
                    52:be:4c:85:3f:f4:79:e2:d2:f9:a7:94:82:04:98:
                    93:83:ac:47:be:6b:44:59:58:b5:44:31:9e:b6:88:
                    48:e5:2c:c0:83:e8:c3:f1:b6:0c:d3:17:41:08:46:
                    9c:bb
                Exponent: 65537 (0x10001)
        X509v3 extensions:
            X509v3 Basic Constraints: 
                CA:FALSE
            X509v3 Subject Key Identifier: 
                01:56:10:CF:D8:FE:86:EB:BC:D4:68:5F:A4:C5:73:CC:61:9B:22:14
            X509v3 Authority Key Identifier: 
                keyid:03:02:7E:19:58:89:F9:E7:BC:BC:53:13:91:5E:C9:3D:A0:47:B6:95
                DirName:/CN=localhost
                serial:08:48:AE:8A:1F:40:1F:E2:C0:04:4B:9C:34:0F:04:7E:55:C0:21:02

            X509v3 Extended Key Usage: 
                TLS Web Client Authentication
            X509v3 Key Usage: 
                Digital Signature
    Signature Algorithm: sha256WithRSAEncryption
         29:24:cd:f4:ae:78:c2:f8:ff:27:46:80:9c:d6:b2:35:48:ed:
         f5:64:8a:8d:1f:06:b0:74:5e:fb:46:53:d9:3e:73:4e:db:f6:
         71:30:5a:ca:32:68:fe:1f:c4:5e:04:66:08:3f:45:4c:76:24:
         a9:24:df:73:40:15:f1:e7:47:3b:60:e4:95:99:f2:1f:c0:42:
         dd:55:98:b2:31:a4:49:3a:92:2f:ae:91:31:03:5e:ae:d9:91:
         b4:36:e3:18:e3:0e:c6:f4:e7:3d:a4:9f:77:6e:7e:6c:35:71:
         4f:91:10:7a:66:71:1c:f7:61:47:98:ed:d8:b9:1e:24:a0:fe:
         00:b9:a1:94:f6:9c:f7:ce:e0:bc:6b:8b:2b:a3:52:3d:65:90:
         a3:41:13:5e:bb:ab:82:cf:f8:46:35:2f:3a:6b:48:ea:1e:53:
         df:07:d8:e4:c6:8d:73:4c:d3:5a:16:cd:9b:3f:eb:b4:67:9e:
         32:78:ea:bc:f2:79:2a:03:d2:ad:00:c6:91:e2:76:b9:58:73:
         65:7d:a7:c7:e0:86:02:74:e6:4a:04:29:10:36:07:f7:6a:d9:
         dd:b6:a3:24:6f:a8:b3:d4:3f:7e:fc:d2:1c:b5:62:da:6d:f5:
         ec:01:d7:84:67:3a:c6:76:4e:54:c2:6b:65:89:ca:bc:d8:8c:
         47:3c:67:23
-----BEGIN CERTIFICATE-----
MIIDTzCCAjegAwIBAgIRALZRT6k52U7nI641ET6jFQcwDQYJKoZIhvcNAQELBQAw
FDESMBAGA1UEAwwJbG9jYWxob3N0MB4XDTIyMDgwOTA2MDgxM1oXDTI0MTExMTA2
MDgxM1owDzENMAsGA1UEAwwEaG9zdDCCASIwDQYJKoZIhvcNAQEBBQADggEPADCC
AQoCggEBAMGoGygyP78kJxeFuJfN+EXwTA4PyRaAv6vmHvbksoJI5ZwGhTj6iCxz
ySbAORODC5o3uGT1gYmfl1jFVMz/YMvJKt3A0ULfbBSgv0S2ua/4KqEJ7qHwYq+S
YMNNA1ICml4qu47dFBdYBpR4BvkY7wX1d8rFzncfPz5tsE3eY4OhlurfdjVrXAbk
w4pwcOC3iitnnpT24GpgE8FdhUidagmd0Wm4dnKZqagccgAXdjDjiWVUmTg0Td+T
m64x7Ku2cZkHsLlDQhyIUCn4PeSp7i8KUr5MhT/0eeLS+aeUggSYk4OsR75rRFlY
tUQxnraISOUswIPow/G2DNMXQQhGnLsCAwEAAaOBoDCBnTAJBgNVHRMEAjAAMB0G
A1UdDgQWBBQBVhDP2P6G67zUaF+kxXPMYZsiFDBPBgNVHSMESDBGgBQDAn4ZWIn5
57y8UxORXsk9oEe2laEYpBYwFDESMBAGA1UEAwwJbG9jYWxob3N0ghQISK6KH0Af
4sAES5w0DwR+VcAhAjATBgNVHSUEDDAKBggrBgEFBQcDAjALBgNVHQ8EBAMCB4Aw
DQYJKoZIhvcNAQELBQADggEBACkkzfSueML4/ydGgJzWsjVI7fVkio0fBrB0XvtG
U9k+c07b9nEwWsoyaP4fxF4EZgg/RUx2JKkk33NAFfHnRztg5JWZ8h/AQt1VmLIx
pEk6ki+ukTEDXq7ZkbQ24xjjDsb05z2kn3dufmw1cU+REHpmcRz3YUeY7di5HiSg
/gC5oZT2nPfO4LxriyujUj1lkKNBE167q4LP+EY1LzprSOoeU98H2OTGjXNM01oW
zZs/67RnnjJ46rzyeSoD0q0AxpHidrlYc2V9p8fghgJ05koEKRA2B/dq2d22oyRv
qLPUP3780hy1Ytpt9ewB14RnOsZ2TlTCa2WJyrzYjEc8ZyM=
-----END CERTIFICATE-----
