Certificate:
    Data:
        Version: 3 (0x2)
        Serial Number:
            e3:e9:0f:63:5d:4a:40:dd:a3:21:71:6e:ed:13:2c:30
        Signature Algorithm: sha256WithRSAEncryption
        Issuer: CN=localhost
        Validity
            Not Before: Aug  9 06:08:12 2022 GMT
            Not After : Nov 11 06:08:12 2024 GMT
        Subject: CN=localhost
        Subject Public Key Info:
            Public Key Algorithm: rsaEncryption
                RSA Public-Key: (2048 bit)
                Modulus:
                    00:ce:81:d4:9e:a6:e7:f9:af:8e:ef:23:4a:0f:58:
                    41:6d:e3:a1:cc:fc:68:08:d8:c2:b7:96:f4:22:ee:
                    96:13:0f:6b:6f:a3:9b:90:37:dc:bd:9d:f4:2d:67:
                    f9:b5:00:f6:11:a2:fd:6c:bb:0d:50:53:b7:ba:6c:
                    19:d2:00:14:48:e2:58:87:b7:e4:dc:56:87:9a:62:
                    c6:00:48:93:50:8e:6f:07:9f:1e:a6:7d:bb:91:9a:
                    d1:d6:3a:5e:cb:dd:fd:24:40:58:3f:21:4f:a7:07:
                    e9:85:64:5c:2d:54:57:78:48:7d:7a:7d:0c:60:7c:
                    20:1d:00:e8:f4:7c:f3:c9:6a:26:f6:67:e5:a0:70:
                    ef:e8:49:77:40:d5:7c:dc:f9:8a:34:72:bb:2a:ce:
                    9b:a6:df:19:91:04:f7:21:db:0c:28:9a:e6:94:f4:
                    e7:58:2f:aa:fb:3c:c8:c5:7b:85:8d:9e:c3:b6:f8:
                    c3:0c:d2:2d:3d:2a:e7:84:e0:b6:38:46:c8:1c:ad:
                    b6:24:8b:0d:2c:b3:0c:f1:2b:d5:b7:a8:a6:d0:aa:
                    43:79:0b:ea:bd:16:8f:14:71:0f:7c:36:7f:68:54:
                    a8:19:e1:8d:0d:fd:88:fd:67:e3:64:9b:15:a9:6c:
                    d5:eb:3b:6d:ce:5c:ff:13:40:02:2d:42:b2:58:ce:
                    a4:59
                Exponent: 65537 (0x10001)
        X509v3 extensions:
            X509v3 Basic Constraints: 
                CA:FALSE
            X509v3 Subject Key Identifier: 
                0D:93:8D:1B:2E:DC:16:7D:B8:66:36:E8:D8:6A:4B:61:2C:24:23:78
            X509v3 Authority Key Identifier: 
                keyid:03:02:7E:19:58:89:F9:E7:BC:BC:53:13:91:5E:C9:3D:A0:47:B6:95
                DirName:/CN=localhost
                serial:08:48:AE:8A:1F:40:1F:E2:C0:04:4B:9C:34:0F:04:7E:55:C0:21:02

            X509v3 Extended Key Usage: 
                TLS Web Server Authentication
            X509v3 Key Usage: 
                Digital Signature, Key Encipherment
            X509v3 Subject Alternative Name: 
                DNS:localhost
    Signature Algorithm: sha256WithRSAEncryption
         1a:b0:fc:63:72:c7:06:2f:e6:2d:e6:09:b0:ca:4d:9f:e8:30:
         6e:d7:36:3c:9a:12:af:70:80:d4:06:f3:61:d2:ea:69:49:63:
         43:44:fe:2e:c1:4a:3f:05:87:d9:04:ac:18:5f:77:8a:8a:22:
         08:42:8d:96:9e:3b:b4:b8:91:5f:e3:26:b0:21:f9:10:0b:34:
         06:5c:e6:34:bd:cf:bf:16:a4:63:77:cf:4a:5a:55:cf:e1:6b:
         ed:79:8d:c8:a9:b6:55:f4:54:82:cf:a2:68:93:40:80:d1:e0:
         3b:a0:74:b6:c5:b5:f8:99:05:ea:f2:2e:69:e8:7c:ed:00:43:
         e6:df:aa:a9:a0:2a:ba:15:97:c4:f2:69:f7:62:dd:92:e4:be:
         b5:bf:6e:e5:66:65:05:07:d9:4f:f4:52:61:16:56:8a:55:e8:
         55:f8:50:56:b6:24:75:9e:21:67:46:0f:24:47:29:79:e5:08:
         eb:ca:9b:05:d1:61:03:ee:f7:fc:83:01:03:14:c8:d3:e7:34:
         3d:7e:f8:b3:4b:0e:5e:3d:90:3d:f6:17:5b:00:3d:a4:a3:9e:
         c4:94:b8:32:03:26:0a:ff:5d:67:a0:38:6f:23:2a:8e:12:6b:
         36:f5:f4:a7:2c:91:0b:f8:ad:b9:b0:e5:72:da:33:f5:fd:65:
         31:41:8b:7a
-----BEGIN CERTIFICATE-----
MIIDajCCAlKgAwIBAgIRAOPpD2NdSkDdoyFxbu0TLDAwDQYJKoZIhvcNAQELBQAw
FDESMBAGA1UEAwwJbG9jYWxob3N0MB4XDTIyMDgwOTA2MDgxMloXDTI0MTExMTA2
MDgxMlowFDESMBAGA1UEAwwJbG9jYWxob3N0MIIBIjANBgkqhkiG9w0BAQEFAAOC
AQ8AMIIBCgKCAQEAzoHUnqbn+a+O7yNKD1hBbeOhzPxoCNjCt5b0Iu6WEw9rb6Ob
kDfcvZ30LWf5tQD2EaL9bLsNUFO3umwZ0gAUSOJYh7fk3FaHmmLGAEiTUI5vB58e
pn27kZrR1jpey939JEBYPyFPpwfphWRcLVRXeEh9en0MYHwgHQDo9HzzyWom9mfl
oHDv6El3QNV83PmKNHK7Ks6bpt8ZkQT3IdsMKJrmlPTnWC+q+zzIxXuFjZ7DtvjD
DNItPSrnhOC2OEbIHK22JIsNLLMM8SvVt6im0KpDeQvqvRaPFHEPfDZ/aFSoGeGN
Df2I/WfjZJsVqWzV6zttzlz/E0ACLUKyWM6kWQIDAQABo4G2MIGzMAkGA1UdEwQC
MAAwHQYDVR0OBBYEFA2TjRsu3BZ9uGY26NhqS2EsJCN4ME8GA1UdIwRIMEaAFAMC
fhlYifnnvLxTE5FeyT2gR7aVoRikFjAUMRIwEAYDVQQDDAlsb2NhbGhvc3SCFAhI
roofQB/iwARLnDQPBH5VwCECMBMGA1UdJQQMMAoGCCsGAQUFBwMBMAsGA1UdDwQE
AwIFoDAUBgNVHREEDTALgglsb2NhbGhvc3QwDQYJKoZIhvcNAQELBQADggEBABqw
/GNyxwYv5i3mCbDKTZ/oMG7XNjyaEq9wgNQG82HS6mlJY0NE/i7BSj8Fh9kErBhf
d4qKIghCjZaeO7S4kV/jJrAh+RALNAZc5jS9z78WpGN3z0paVc/ha+15jciptlX0
VILPomiTQIDR4DugdLbFtfiZBeryLmnofO0AQ+bfqqmgKroVl8Tyafdi3ZLkvrW/
buVmZQUH2U/0UmEWVopV6FX4UFa2JHWeIWdGDyRHKXnlCOvKmwXRYQPu9/yDAQMU
yNPnND1++LNLDl49kD32F1sAPaSjnsSUuDIDJgr/XWegOG8jKo4Sazb19KcskQv4
rbmw5XLaM/X9ZTFBi3o=
-----END CERTIFICATE-----
